target datalayout = "e-m:e-p270:32:32-p271:32:32-p272:64:64-i64:64-i128:128-f80:128-n8:16:32:64-S128"
target triple = "x86_64-pc-linux-gnu"

%"class.cv::utils::trace::details::Region" = type <{ ptr, i32, [4 x i8] }>
%"struct.cv::hal::cpu_baseline::(anonymous namespace)::RGB2YCrCb_f" = type { i32, i32, i8, [5 x float] }
%"class.cv::Range" = type { i32, i32 }
%"class.cv::ParallelLoopBody" = type { ptr }
%"class.cv::impl::(anonymous namespace)::CvtColorLoop_Invoker.9" = type { %"class.cv::ParallelLoopBody", ptr, i64, ptr, i64, i32, ptr }

; Function Attrs: mustprogress nounwind uwtable
define internal noundef float @_ZN2cv4impl12_GLOBAL__N_112ColorChannelIfE4halfEv() #2 align 2 {
  ret float 5.000000e-01
}

; Function Attrs: mustprogress nounwind uwtable
define linkonce_odr hidden void @_ZN2cv5utils5trace7details6RegionD2Ev(ptr noundef nonnull align 8 dereferenceable(12) %0) unnamed_addr #2 comdat align 2 personality ptr @__gxx_personality_v0 {
  %2 = alloca ptr, align 8
  store ptr %0, ptr %2, align 8
  %3 = load ptr, ptr %2, align 8
  %4 = getelementptr inbounds %"class.cv::utils::trace::details::Region", ptr %3, i32 0, i32 1
  %5 = load i32, ptr %4, align 8
  %6 = icmp ne i32 %5, 0
  br i1 %6, label %7, label %9

7:                                                ; preds = %1
  invoke void @_ZN2cv5utils5trace7details6Region7destroyEv(ptr noundef nonnull align 8 dereferenceable(12) %3)
          to label %8 unwind label %10

8:                                                ; preds = %7
  br label %9

9:                                                ; preds = %8, %1
  ret void

10:                                               ; preds = %7
  %11 = landingpad { ptr, i32 }
          catch ptr null
  %12 = extractvalue { ptr, i32 } %11, 0
  call void @__clang_call_terminate(ptr %12) #11
  unreachable
}

; Function Attrs: mustprogress uwtable
define internal void @_ZNK2cv3hal12cpu_baseline12_GLOBAL__N_111RGB2YCrCb_fIfEclEPKfPfi(ptr noundef nonnull align 4 dereferenceable(32) %0, ptr noundef %1, ptr noundef %2, i32 noundef %3) #0 align 2 {
  %5 = alloca ptr, align 8
  %6 = alloca ptr, align 8
  %7 = alloca ptr, align 8
  %8 = alloca i32, align 4
  %9 = alloca i32, align 4
  %10 = alloca i32, align 4
  %11 = alloca i32, align 4
  %12 = alloca float, align 4
  %13 = alloca float, align 4
  %14 = alloca float, align 4
  %15 = alloca float, align 4
  %16 = alloca float, align 4
  %17 = alloca float, align 4
  %18 = alloca i32, align 4
  %19 = alloca float, align 4
  %20 = alloca float, align 4
  %21 = alloca float, align 4
  store ptr %0, ptr %5, align 8
  store ptr %1, ptr %6, align 8
  store ptr %2, ptr %7, align 8
  store i32 %3, ptr %8, align 4
  %22 = load ptr, ptr %5, align 8
  %23 = getelementptr inbounds %"struct.cv::hal::cpu_baseline::(anonymous namespace)::RGB2YCrCb_f", ptr %22, i32 0, i32 0
  %24 = load i32, ptr %23, align 4
  store i32 %24, ptr %9, align 4
  %25 = getelementptr inbounds %"struct.cv::hal::cpu_baseline::(anonymous namespace)::RGB2YCrCb_f", ptr %22, i32 0, i32 1
  %26 = load i32, ptr %25, align 4
  store i32 %26, ptr %10, align 4
  %27 = getelementptr inbounds %"struct.cv::hal::cpu_baseline::(anonymous namespace)::RGB2YCrCb_f", ptr %22, i32 0, i32 2
  %28 = load i8, ptr %27, align 4
  %29 = trunc i8 %28 to i1
  %30 = xor i1 %29, true
  %31 = zext i1 %30 to i32
  store i32 %31, ptr %11, align 4
  %32 = call noundef float @_ZN2cv4impl12_GLOBAL__N_112ColorChannelIfE4halfEv()
  store float %32, ptr %12, align 4
  %33 = getelementptr inbounds %"struct.cv::hal::cpu_baseline::(anonymous namespace)::RGB2YCrCb_f", ptr %22, i32 0, i32 3
  %34 = getelementptr inbounds [5 x float], ptr %33, i64 0, i64 0
  %35 = load float, ptr %34, align 4
  store float %35, ptr %13, align 4
  %36 = getelementptr inbounds %"struct.cv::hal::cpu_baseline::(anonymous namespace)::RGB2YCrCb_f", ptr %22, i32 0, i32 3
  %37 = getelementptr inbounds [5 x float], ptr %36, i64 0, i64 1
  %38 = load float, ptr %37, align 4
  store float %38, ptr %14, align 4
  %39 = getelementptr inbounds %"struct.cv::hal::cpu_baseline::(anonymous namespace)::RGB2YCrCb_f", ptr %22, i32 0, i32 3
  %40 = getelementptr inbounds [5 x float], ptr %39, i64 0, i64 2
  %41 = load float, ptr %40, align 4
  store float %41, ptr %15, align 4
  %42 = getelementptr inbounds %"struct.cv::hal::cpu_baseline::(anonymous namespace)::RGB2YCrCb_f", ptr %22, i32 0, i32 3
  %43 = getelementptr inbounds [5 x float], ptr %42, i64 0, i64 3
  %44 = load float, ptr %43, align 4
  store float %44, ptr %16, align 4
  %45 = getelementptr inbounds %"struct.cv::hal::cpu_baseline::(anonymous namespace)::RGB2YCrCb_f", ptr %22, i32 0, i32 3
  %46 = getelementptr inbounds [5 x float], ptr %45, i64 0, i64 4
  %47 = load float, ptr %46, align 4
  store float %47, ptr %17, align 4
  store i32 0, ptr %18, align 4
  br label %48

48:                                               ; preds = %104, %4
  %49 = load i32, ptr %18, align 4
  %50 = load i32, ptr %8, align 4
  %51 = icmp slt i32 %49, %50
  br i1 %51, label %52, label %113

52:                                               ; preds = %48
  %53 = load ptr, ptr %6, align 8
  %54 = getelementptr inbounds float, ptr %53, i64 0
  %55 = load float, ptr %54, align 4
  %56 = load float, ptr %13, align 4
  %57 = load ptr, ptr %6, align 8
  %58 = getelementptr inbounds float, ptr %57, i64 1
  %59 = load float, ptr %58, align 4
  %60 = load float, ptr %14, align 4
  %61 = fmul float %59, %60
  %62 = call float @llvm.fmuladd.f32(float %55, float %56, float %61)
  %63 = load ptr, ptr %6, align 8
  %64 = getelementptr inbounds float, ptr %63, i64 2
  %65 = load float, ptr %64, align 4
  %66 = load float, ptr %15, align 4
  %67 = call float @llvm.fmuladd.f32(float %65, float %66, float %62)
  store float %67, ptr %19, align 4
  %68 = load ptr, ptr %6, align 8
  %69 = load i32, ptr %10, align 4
  %70 = xor i32 %69, 2
  %71 = sext i32 %70 to i64
  %72 = getelementptr inbounds float, ptr %68, i64 %71
  %73 = load float, ptr %72, align 4
  %74 = load float, ptr %19, align 4
  %75 = fsub float %73, %74
  %76 = load float, ptr %16, align 4
  %77 = load float, ptr %12, align 4
  %78 = call float @llvm.fmuladd.f32(float %75, float %76, float %77)
  store float %78, ptr %20, align 4
  %79 = load ptr, ptr %6, align 8
  %80 = load i32, ptr %10, align 4
  %81 = sext i32 %80 to i64
  %82 = getelementptr inbounds float, ptr %79, i64 %81
  %83 = load float, ptr %82, align 4
  %84 = load float, ptr %19, align 4
  %85 = fsub float %83, %84
  %86 = load float, ptr %17, align 4
  %87 = load float, ptr %12, align 4
  %88 = call float @llvm.fmuladd.f32(float %85, float %86, float %87)
  store float %88, ptr %21, align 4
  %89 = load float, ptr %19, align 4
  %90 = load ptr, ptr %7, align 8
  %91 = getelementptr inbounds float, ptr %90, i64 0
  store float %89, ptr %91, align 4
  %92 = load float, ptr %20, align 4
  %93 = load ptr, ptr %7, align 8
  %94 = load i32, ptr %11, align 4
  %95 = add nsw i32 1, %94
  %96 = sext i32 %95 to i64
  %97 = getelementptr inbounds float, ptr %93, i64 %96
  store float %92, ptr %97, align 4
  %98 = load float, ptr %21, align 4
  %99 = load ptr, ptr %7, align 8
  %100 = load i32, ptr %11, align 4
  %101 = sub nsw i32 2, %100
  %102 = sext i32 %101 to i64
  %103 = getelementptr inbounds float, ptr %99, i64 %102
  store float %98, ptr %103, align 4
  br label %104

104:                                              ; preds = %52
  %105 = load i32, ptr %18, align 4
  %106 = add nsw i32 %105, 1
  store i32 %106, ptr %18, align 4
  %107 = load i32, ptr %9, align 4
  %108 = load ptr, ptr %6, align 8
  %109 = sext i32 %107 to i64
  %110 = getelementptr inbounds float, ptr %108, i64 %109
  store ptr %110, ptr %6, align 8
  %111 = load ptr, ptr %7, align 8
  %112 = getelementptr inbounds float, ptr %111, i64 3
  store ptr %112, ptr %7, align 8
  br label %48, !llvm.loop !18

113:                                              ; preds = %48
  ret void
}

; Function Attrs: mustprogress uwtable
define internal void @_ZNK2cv4impl12_GLOBAL__N_120CvtColorLoop_InvokerINS_3hal12cpu_baseline12_GLOBAL__N_111RGB2YCrCb_fIfEEEclERKNS_5RangeE(ptr noundef nonnull align 8 dereferenceable(56) %0, ptr noundef nonnull align 4 dereferenceable(8) %1) unnamed_addr #0 align 2 personality ptr @__gxx_personality_v0 {
  %3 = alloca ptr, align 8
  %4 = alloca ptr, align 8
  %5 = alloca %"class.cv::utils::trace::details::Region", align 8
  %6 = alloca ptr, align 8
  %7 = alloca ptr, align 8
  %8 = alloca i32, align 4
  %9 = alloca ptr, align 8
  %10 = alloca i32, align 4
  store ptr %0, ptr %3, align 8
  store ptr %1, ptr %4, align 8
  %11 = load ptr, ptr %3, align 8
  call void @_ZN2cv5utils5trace7details6RegionC1ERKNS3_21LocationStaticStorageE(ptr noundef nonnull align 8 dereferenceable(12) %5, ptr noundef nonnull align 8 dereferenceable(32) @_ZZNK2cv4impl12_GLOBAL__N_120CvtColorLoop_InvokerINS_3hal12cpu_baseline12_GLOBAL__N_111RGB2YCrCb_fIfEEEclERKNS_5RangeEE25__cv_trace_location_fn146)
  %12 = getelementptr inbounds %"class.cv::impl::(anonymous namespace)::CvtColorLoop_Invoker.9", ptr %11, i32 0, i32 1
  %13 = load ptr, ptr %12, align 8
  %14 = load ptr, ptr %4, align 8
  %15 = getelementptr inbounds %"class.cv::Range", ptr %14, i32 0, i32 0
  %16 = load i32, ptr %15, align 4
  %17 = sext i32 %16 to i64
  %18 = getelementptr inbounds %"class.cv::impl::(anonymous namespace)::CvtColorLoop_Invoker.9", ptr %11, i32 0, i32 2
  %19 = load i64, ptr %18, align 8
  %20 = mul i64 %17, %19
  %21 = getelementptr inbounds i8, ptr %13, i64 %20
  store ptr %21, ptr %6, align 8
  %22 = getelementptr inbounds %"class.cv::impl::(anonymous namespace)::CvtColorLoop_Invoker.9", ptr %11, i32 0, i32 3
  %23 = load ptr, ptr %22, align 8
  %24 = load ptr, ptr %4, align 8
  %25 = getelementptr inbounds %"class.cv::Range", ptr %24, i32 0, i32 0
  %26 = load i32, ptr %25, align 4
  %27 = sext i32 %26 to i64
  %28 = getelementptr inbounds %"class.cv::impl::(anonymous namespace)::CvtColorLoop_Invoker.9", ptr %11, i32 0, i32 4
  %29 = load i64, ptr %28, align 8
  %30 = mul i64 %27, %29
  %31 = getelementptr inbounds i8, ptr %23, i64 %30
  store ptr %31, ptr %7, align 8
  %32 = load ptr, ptr %4, align 8
  %33 = getelementptr inbounds %"class.cv::Range", ptr %32, i32 0, i32 0
  %34 = load i32, ptr %33, align 4
  store i32 %34, ptr %8, align 4
  br label %35

35:                                               ; preds = %49, %2
  %36 = load i32, ptr %8, align 4
  %37 = load ptr, ptr %4, align 8
  %38 = getelementptr inbounds %"class.cv::Range", ptr %37, i32 0, i32 1
  %39 = load i32, ptr %38, align 4
  %40 = icmp slt i32 %36, %39
  br i1 %40, label %41, label %64

41:                                               ; preds = %35
  %42 = getelementptr inbounds %"class.cv::impl::(anonymous namespace)::CvtColorLoop_Invoker.9", ptr %11, i32 0, i32 6
  %43 = load ptr, ptr %42, align 8
  %44 = load ptr, ptr %6, align 8
  %45 = load ptr, ptr %7, align 8
  %46 = getelementptr inbounds %"class.cv::impl::(anonymous namespace)::CvtColorLoop_Invoker.9", ptr %11, i32 0, i32 5
  %47 = load i32, ptr %46, align 8
  invoke void @_ZNK2cv3hal12cpu_baseline12_GLOBAL__N_111RGB2YCrCb_fIfEclEPKfPfi(ptr noundef nonnull align 4 dereferenceable(32) %43, ptr noundef %44, ptr noundef %45, i32 noundef %47)
          to label %48 unwind label %60

48:                                               ; preds = %41
  br label %49

49:                                               ; preds = %48
  %50 = load i32, ptr %8, align 4
  %51 = add nsw i32 %50, 1
  store i32 %51, ptr %8, align 4
  %52 = getelementptr inbounds %"class.cv::impl::(anonymous namespace)::CvtColorLoop_Invoker.9", ptr %11, i32 0, i32 2
  %53 = load i64, ptr %52, align 8
  %54 = load ptr, ptr %6, align 8
  %55 = getelementptr inbounds i8, ptr %54, i64 %53
  store ptr %55, ptr %6, align 8
  %56 = getelementptr inbounds %"class.cv::impl::(anonymous namespace)::CvtColorLoop_Invoker.9", ptr %11, i32 0, i32 4
  %57 = load i64, ptr %56, align 8
  %58 = load ptr, ptr %7, align 8
  %59 = getelementptr inbounds i8, ptr %58, i64 %57
  store ptr %59, ptr %7, align 8
  br label %35, !llvm.loop !17

60:                                               ; preds = %41
  %61 = landingpad { ptr, i32 }
          cleanup
  %62 = extractvalue { ptr, i32 } %61, 0
  store ptr %62, ptr %9, align 8
  %63 = extractvalue { ptr, i32 } %61, 1
  store i32 %63, ptr %10, align 4
  call void @_ZN2cv5utils5trace7details6RegionD2Ev(ptr noundef nonnull align 8 dereferenceable(12) %5) #10
  br label %65

64:                                               ; preds = %35
  call void @_ZN2cv5utils5trace7details6RegionD2Ev(ptr noundef nonnull align 8 dereferenceable(12) %5) #10
  ret void

65:                                               ; preds = %60
  %66 = load ptr, ptr %9, align 8
  %67 = load i32, ptr %10, align 4
  %68 = insertvalue { ptr, i32 } poison, ptr %66, 0
  %69 = insertvalue { ptr, i32 } %68, i32 %67, 1
  resume { ptr, i32 } %69
}