; Function Attrs: mustprogress uwtable
define internal void @_ZNK2cv4impl12_GLOBAL__N_120CvtColorLoop_InvokerINS_3hal12cpu_baseline12_GLOBAL__N_111RGB2YCrCb_fIfEEEclERKNS_5RangeE(ptr nocapture noundef nonnull readonly align 8 dereferenceable(56) %0, ptr nocapture noundef nonnull readonly align 4 dereferenceable(8) %1) unnamed_addr #0 align 2 personality ptr @__gxx_personality_v0 {
  %3 = alloca %"class.cv::utils::trace::details::Region", align 8
  call void @_ZN2cv5utils5trace7details6RegionC1ERKNS3_21LocationStaticStorageE(ptr noundef nonnull align 8 dereferenceable(12) %3, ptr noundef nonnull align 8 dereferenceable(32) @_ZZNK2cv4impl12_GLOBAL__N_120CvtColorLoop_InvokerINS_3hal12cpu_baseline12_GLOBAL__N_111RGB2YCrCb_fIfEEEclERKNS_5RangeEE25__cv_trace_location_fn146)
  %4 = load i32, ptr %1, align 4
  %5 = getelementptr inbounds i8, ptr %0, i64 16
  %6 = getelementptr inbounds i8, ptr %0, i64 32
  %7 = getelementptr inbounds i8, ptr %1, i64 4
  %8 = load i32, ptr %7, align 4
  %9 = icmp slt i32 %4, %8
  br i1 %9, label %.lr.ph, label %._crit_edge

.lr.ph:                                           ; preds = %2
  %10 = getelementptr inbounds i8, ptr %0, i64 48
  %11 = getelementptr inbounds i8, ptr %0, i64 40
  %12 = load i32, ptr %11, align 8
  %13 = icmp sgt i32 %12, 0
  br i1 %13, label %.lr.ph.split.preheader, label %._crit_edge

.lr.ph.split.preheader:                           ; preds = %.lr.ph
  %14 = getelementptr inbounds i8, ptr %0, i64 8
  %15 = load ptr, ptr %14, align 8
  %16 = load i64, ptr %5, align 8
  %17 = sext i32 %4 to i64
  %18 = mul i64 %16, %17
  %19 = getelementptr inbounds i8, ptr %15, i64 %18
  %20 = getelementptr inbounds i8, ptr %0, i64 24
  %21 = load ptr, ptr %20, align 8
  %22 = load i64, ptr %6, align 8
  %23 = mul i64 %22, %17
  %24 = getelementptr inbounds i8, ptr %21, i64 %23
  br label %.lr.ph.split

.lr.ph.split:                                     ; preds = %.lr.ph.split.preheader, %_ZNK2cv3hal12cpu_baseline12_GLOBAL__N_111RGB2YCrCb_fIfEclEPKfPfi.exit
  %25 = phi i32 [ %79, %_ZNK2cv3hal12cpu_baseline12_GLOBAL__N_111RGB2YCrCb_fIfEclEPKfPfi.exit ], [ %8, %.lr.ph.split.preheader ]
  %26 = phi i64 [ %80, %_ZNK2cv3hal12cpu_baseline12_GLOBAL__N_111RGB2YCrCb_fIfEclEPKfPfi.exit ], [ %22, %.lr.ph.split.preheader ]
  %27 = phi i64 [ %81, %_ZNK2cv3hal12cpu_baseline12_GLOBAL__N_111RGB2YCrCb_fIfEclEPKfPfi.exit ], [ %16, %.lr.ph.split.preheader ]
  %.016 = phi ptr [ %83, %_ZNK2cv3hal12cpu_baseline12_GLOBAL__N_111RGB2YCrCb_fIfEclEPKfPfi.exit ], [ %19, %.lr.ph.split.preheader ]
  %.01215 = phi ptr [ %84, %_ZNK2cv3hal12cpu_baseline12_GLOBAL__N_111RGB2YCrCb_fIfEclEPKfPfi.exit ], [ %24, %.lr.ph.split.preheader ]
  %.01314 = phi i32 [ %82, %_ZNK2cv3hal12cpu_baseline12_GLOBAL__N_111RGB2YCrCb_fIfEclEPKfPfi.exit ], [ %4, %.lr.ph.split.preheader ]
  %28 = load ptr, ptr %10, align 8
  %29 = load i32, ptr %11, align 8
  %30 = getelementptr inbounds i8, ptr %28, i64 12
  %31 = load float, ptr %30, align 4
  %32 = getelementptr inbounds i8, ptr %28, i64 16
  %33 = load float, ptr %32, align 4
  %34 = getelementptr inbounds i8, ptr %28, i64 20
  %35 = load float, ptr %34, align 4
  %36 = getelementptr inbounds i8, ptr %28, i64 24
  %37 = load float, ptr %36, align 4
  %38 = getelementptr inbounds i8, ptr %28, i64 28
  %39 = load float, ptr %38, align 4
  %40 = icmp sgt i32 %29, 0
  br i1 %40, label %.lr.ph.i, label %_ZNK2cv3hal12cpu_baseline12_GLOBAL__N_111RGB2YCrCb_fIfEclEPKfPfi.exit

.lr.ph.i:                                         ; preds = %.lr.ph.split
  %41 = getelementptr inbounds i8, ptr %28, i64 8
  %42 = load i8, ptr %41, align 4
  %43 = and i8 %42, 1
  %44 = xor i8 %43, 1
  %45 = zext nneg i8 %44 to i32
  %46 = getelementptr inbounds i8, ptr %28, i64 4
  %47 = load i32, ptr %46, align 4
  %48 = load i32, ptr %28, align 4
  %49 = xor i32 %47, 2
  %50 = sext i32 %49 to i64
  %51 = sext i32 %47 to i64
  %52 = add nuw nsw i32 %45, 1
  %53 = zext nneg i32 %52 to i64
  %54 = sub nuw nsw i32 2, %45
  %55 = zext nneg i32 %54 to i64
  %56 = sext i32 %48 to i64
  br label %57

57:                                               ; preds = %57, %.lr.ph.i
  %.034.i = phi ptr [ %.016, %.lr.ph.i ], [ %77, %57 ]
  %.03033.i = phi ptr [ %.01215, %.lr.ph.i ], [ %78, %57 ]
  %.03132.i = phi i32 [ 0, %.lr.ph.i ], [ %76, %57 ]
  %58 = load float, ptr %.034.i, align 4
  %59 = getelementptr inbounds i8, ptr %.034.i, i64 4
  %60 = load float, ptr %59, align 4
  %61 = fmul float %33, %60
  %62 = call float @llvm.fmuladd.f32(float %58, float %31, float %61)
  %63 = getelementptr inbounds i8, ptr %.034.i, i64 8
  %64 = load float, ptr %63, align 4
  %65 = call float @llvm.fmuladd.f32(float %64, float %35, float %62)
  %66 = getelementptr inbounds float, ptr %.034.i, i64 %50
  %67 = load float, ptr %66, align 4
  %68 = fsub float %67, %65
  %69 = call float @llvm.fmuladd.f32(float %68, float %37, float 5.000000e-01)
  %70 = getelementptr inbounds float, ptr %.034.i, i64 %51
  %71 = load float, ptr %70, align 4
  %72 = fsub float %71, %65
  %73 = call float @llvm.fmuladd.f32(float %72, float %39, float 5.000000e-01)
  store float %65, ptr %.03033.i, align 4
  %74 = getelementptr inbounds float, ptr %.03033.i, i64 %53
  store float %69, ptr %74, align 4
  %75 = getelementptr inbounds float, ptr %.03033.i, i64 %55
  store float %73, ptr %75, align 4
  %76 = add nuw nsw i32 %.03132.i, 1
  %77 = getelementptr inbounds float, ptr %.034.i, i64 %56
  %78 = getelementptr inbounds i8, ptr %.03033.i, i64 12
  %exitcond.not.i = icmp eq i32 %76, %29
  br i1 %exitcond.not.i, label %_ZNK2cv3hal12cpu_baseline12_GLOBAL__N_111RGB2YCrCb_fIfEclEPKfPfi.exit.loopexit, label %57, !llvm.loop !92

_ZNK2cv3hal12cpu_baseline12_GLOBAL__N_111RGB2YCrCb_fIfEclEPKfPfi.exit.loopexit: ; preds = %57
  %.pre = load i64, ptr %5, align 8
  %.pre18 = load i64, ptr %6, align 8
  %.pre19 = load i32, ptr %7, align 4
  br label %_ZNK2cv3hal12cpu_baseline12_GLOBAL__N_111RGB2YCrCb_fIfEclEPKfPfi.exit

_ZNK2cv3hal12cpu_baseline12_GLOBAL__N_111RGB2YCrCb_fIfEclEPKfPfi.exit: ; preds = %_ZNK2cv3hal12cpu_baseline12_GLOBAL__N_111RGB2YCrCb_fIfEclEPKfPfi.exit.loopexit, %.lr.ph.split
  %79 = phi i32 [ %.pre19, %_ZNK2cv3hal12cpu_baseline12_GLOBAL__N_111RGB2YCrCb_fIfEclEPKfPfi.exit.loopexit ], [ %25, %.lr.ph.split ]
  %80 = phi i64 [ %.pre18, %_ZNK2cv3hal12cpu_baseline12_GLOBAL__N_111RGB2YCrCb_fIfEclEPKfPfi.exit.loopexit ], [ %26, %.lr.ph.split ]
  %81 = phi i64 [ %.pre, %_ZNK2cv3hal12cpu_baseline12_GLOBAL__N_111RGB2YCrCb_fIfEclEPKfPfi.exit.loopexit ], [ %27, %.lr.ph.split ]
  %82 = add nsw i32 %.01314, 1
  %83 = getelementptr inbounds i8, ptr %.016, i64 %81
  %84 = getelementptr inbounds i8, ptr %.01215, i64 %80
  %85 = icmp slt i32 %82, %79
  br i1 %85, label %.lr.ph.split, label %._crit_edge, !llvm.loop !93

._crit_edge:                                      ; preds = %_ZNK2cv3hal12cpu_baseline12_GLOBAL__N_111RGB2YCrCb_fIfEclEPKfPfi.exit, %.lr.ph, %2
  %86 = getelementptr inbounds i8, ptr %3, i64 8
  %87 = load i32, ptr %86, align 8
  %.not.i = icmp eq i32 %87, 0
  br i1 %.not.i, label %_ZN2cv5utils5trace7details6RegionD2Ev.exit, label %88

88:                                               ; preds = %._crit_edge
  invoke void @_ZN2cv5utils5trace7details6Region7destroyEv(ptr noundef nonnull align 8 dereferenceable(12) %3)
          to label %_ZN2cv5utils5trace7details6RegionD2Ev.exit unwind label %89

89:                                               ; preds = %88
  %90 = landingpad { ptr, i32 }
          catch ptr null
  %91 = extractvalue { ptr, i32 } %90, 0
  call void @__clang_call_terminate(ptr %91) #13
  unreachable

_ZN2cv5utils5trace7details6RegionD2Ev.exit:       ; preds = %._crit_edge, %88
  ret void
}